; Function Attrs: nounwind uwtable
define noalias noundef ptr @Acb_NtkFindNodes(ptr noundef captures(none) %0, ptr noundef readonly captures(none) %1, ptr noundef readonly %2) local_unnamed_addr #0 {
  %4 = tail call noalias dereferenceable_or_null(16) ptr @malloc(i64 noundef 16) #29
  %5 = getelementptr inbounds nuw i8, ptr %4, i64 4
  store i32 0, ptr %5, align 4
  store i32 1000, ptr %4, align 8
  %6 = tail call noalias dereferenceable_or_null(4000) ptr @malloc(i64 noundef 4000) #29
  %7 = getelementptr inbounds nuw i8, ptr %4, i64 8
  store ptr %6, ptr %7, align 8
  %8 = getelementptr i8, ptr %0, i64 260
  %.val.i = load i32, ptr %8, align 4
  %9 = icmp slt i32 %.val.i, 1
  br i1 %9, label %10, label %Acb_NtkIncTravId.exit

10:                                               ; preds = %3
  %11 = getelementptr inbounds nuw i8, ptr %0, i64 256
  %12 = getelementptr inbounds nuw i8, ptr %0, i64 112
  %.val.i.i = load i32, ptr %12, align 8
  %13 = load i32, ptr %11, align 8
  %.not.i.i.i.i = icmp slt i32 %13, %.val.i.i
  br i1 %.not.i.i.i.i, label %14, label %Vec_IntGrow.exit.i.i.i

14:                                               ; preds = %10
  %15 = getelementptr inbounds nuw i8, ptr %0, i64 264
  %16 = load ptr, ptr %15, align 8
  %.not9.i.i.i.i = icmp eq ptr %16, null
  %17 = sext i32 %.val.i.i to i64
  %18 = shl nsw i64 %17, 2
  br i1 %.not9.i.i.i.i, label %21, label %19

19:                                               ; preds = %14
  %20 = tail call ptr @realloc(ptr noundef nonnull %16, i64 noundef %18) #30
  br label %23

21:                                               ; preds = %14
  %22 = tail call noalias ptr @malloc(i64 noundef %18) #29
  br label %23

23:                                               ; preds = %21, %19
  %24 = phi ptr [ %20, %19 ], [ %22, %21 ]
  store ptr %24, ptr %15, align 8
  store i32 %.val.i.i, ptr %11, align 8
  br label %Vec_IntGrow.exit.i.i.i

Vec_IntGrow.exit.i.i.i:                           ; preds = %23, %10
  %25 = icmp sgt i32 %.val.i.i, 0
  br i1 %25, label %.lr.ph.i.i.i, label %Acb_NtkCleanObjTravs.exit.i

.lr.ph.i.i.i:                                     ; preds = %Vec_IntGrow.exit.i.i.i
  %26 = getelementptr inbounds nuw i8, ptr %0, i64 264
  %wide.trip.count.i.i.i = zext nneg i32 %.val.i.i to i64
  br label %27

27:                                               ; preds = %27, %.lr.ph.i.i.i
  %indvars.iv.i.i.i = phi i64 [ 0, %.lr.ph.i.i.i ], [ %indvars.iv.next.i.i.i, %27 ]
  %28 = load ptr, ptr %26, align 8
  %29 = getelementptr inbounds nuw i32, ptr %28, i64 %indvars.iv.i.i.i
  store i32 0, ptr %29, align 4
  %indvars.iv.next.i.i.i = add nuw nsw i64 %indvars.iv.i.i.i, 1
  %exitcond.not.i.i.i = icmp eq i64 %indvars.iv.next.i.i.i, %wide.trip.count.i.i.i
  br i1 %exitcond.not.i.i.i, label %Acb_NtkCleanObjTravs.exit.i, label %27, !llvm.loop !45

Acb_NtkCleanObjTravs.exit.i:                      ; preds = %27, %Vec_IntGrow.exit.i.i.i
  store i32 %.val.i.i, ptr %8, align 4
  br label %Acb_NtkIncTravId.exit

Acb_NtkIncTravId.exit:                            ; preds = %3, %Acb_NtkCleanObjTravs.exit.i
  %30 = getelementptr inbounds nuw i8, ptr %0, i64 96
  %31 = load i32, ptr %30, align 8
  %32 = add nsw i32 %31, 1
  store i32 %32, ptr %30, align 8
  %33 = getelementptr i8, ptr %1, i64 4
  %.val2329 = load i32, ptr %33, align 4
  %34 = icmp sgt i32 %.val2329, 0
  br i1 %34, label %.lr.ph, label %.critedge

.lr.ph:                                           ; preds = %Acb_NtkIncTravId.exit
  %35 = getelementptr i8, ptr %1, i64 8
  %36 = getelementptr i8, ptr %0, i64 48
  %37 = getelementptr i8, ptr %0, i64 136
  %38 = getelementptr i8, ptr %0, i64 152
  br label %39

39:                                               ; preds = %.lr.ph, %39
  %indvars.iv = phi i64 [ 0, %.lr.ph ], [ %indvars.iv.next, %39 ]
  %.val25 = load ptr, ptr %35, align 8
  %40 = getelementptr inbounds nuw i32, ptr %.val25, i64 %indvars.iv
  %41 = load i32, ptr %40, align 4
  %.val26 = load ptr, ptr %36, align 8
  %42 = sext i32 %41 to i64
  %43 = getelementptr inbounds i32, ptr %.val26, i64 %42
  %44 = load i32, ptr %43, align 4
  %.val27 = load ptr, ptr %37, align 8
  %.val28 = load ptr, ptr %38, align 8
  %45 = sext i32 %44 to i64
  %46 = getelementptr inbounds i32, ptr %.val27, i64 %45
  %47 = load i32, ptr %46, align 4
  %48 = sext i32 %47 to i64
  %49 = getelementptr inbounds i32, ptr %.val28, i64 %48
  %50 = getelementptr inbounds nuw i8, ptr %49, i64 4
  %51 = load i32, ptr %50, align 4
  tail call void @Acb_NtkFindNodes_rec(ptr noundef nonnull %0, i32 noundef %51, ptr noundef nonnull %4)
  %indvars.iv.next = add nuw nsw i64 %indvars.iv, 1
  %.val23 = load i32, ptr %33, align 4
  %52 = sext i32 %.val23 to i64
  %53 = icmp slt i64 %indvars.iv.next, %52
  br i1 %53, label %39, label %.critedge, !llvm.loop !60

.critedge:                                        ; preds = %39, %Acb_NtkIncTravId.exit
  %.not = icmp eq ptr %2, null
  br i1 %.not, label %.critedge2, label %.preheader

.preheader:                                       ; preds = %.critedge
  %54 = getelementptr i8, ptr %2, i64 4
  %.val31 = load i32, ptr %54, align 4
  %55 = icmp sgt i32 %.val31, 0
  br i1 %55, label %.lr.ph33, label %.critedge2

.lr.ph33:                                         ; preds = %.preheader
  %56 = getelementptr i8, ptr %2, i64 8
  br label %57

57:                                               ; preds = %.lr.ph33, %57
  %indvars.iv35 = phi i64 [ 0, %.lr.ph33 ], [ %indvars.iv.next36, %57 ]
  %.val24 = load ptr, ptr %56, align 8
  %58 = getelementptr inbounds nuw i32, ptr %.val24, i64 %indvars.iv35
  %59 = load i32, ptr %58, align 4
  tail call void @Acb_NtkFindNodes_rec(ptr noundef %0, i32 noundef %59, ptr noundef nonnull %4)
  %indvars.iv.next36 = add nuw nsw i64 %indvars.iv35, 1
  %.val = load i32, ptr %54, align 4
  %60 = sext i32 %.val to i64
  %61 = icmp slt i64 %indvars.iv.next36, %60
  br i1 %61, label %57, label %.critedge2, !llvm.loop !61

.critedge2:                                       ; preds = %57, %.preheader, %.critedge
  ret ptr %4
}